target datalayout = "e-m:e-p270:32:32-p271:32:32-p272:64:64-i64:64-i128:128-f80:128-n8:16:32:64-S128"
target triple = "x86_64-pc-linux-gnu"

%"class.lean::reducibility_hints" = type { %"class.lean::object_ref" }
%"class.lean::object_ref" = type { ptr }
%"class.lean::list_ref" = type { %"class.lean::object_ref" }
%"class.lean::declaration" = type { %"class.lean::object_ref" }
%"class.lean::name" = type { %"class.lean::object_ref" }
%"class.lean::expr" = type { %"class.lean::object_ref" }

@_ZN4leanL7g_dummyE = internal global ptr null, align 8
@_ZN4leanL8g_opaqueE = internal global ptr null, align 8

; Function Attrs: inlinehint mustprogress nounwind uwtable
define internal noundef ptr @_ZL8lean_boxm(i64 noundef %0) #6 {
  %2 = alloca i64, align 8
  store i64 %0, ptr %2, align 8, !tbaa !105
  %3 = load i64, ptr %2, align 8, !tbaa !105
  %4 = shl i64 %3, 1
  %5 = or i64 %4, 1
  %6 = inttoptr i64 %5 to ptr
  ret ptr %6
}

; Function Attrs: mustprogress nounwind uwtable
define linkonce_odr hidden void @_ZN4lean10object_refC2EP11lean_object(ptr noundef nonnull align 8 dereferenceable(8) %0, ptr noundef %1) unnamed_addr #5 comdat align 2 {
  %3 = alloca ptr, align 8
  %4 = alloca ptr, align 8
  store ptr %0, ptr %3, align 8, !tbaa !11
  store ptr %1, ptr %4, align 8, !tbaa !10
  %5 = load ptr, ptr %3, align 8
  %6 = getelementptr inbounds nuw %"class.lean::object_ref", ptr %5, i32 0, i32 0
  %7 = load ptr, ptr %4, align 8, !tbaa !10
  store ptr %7, ptr %6, align 8, !tbaa !13
  ret void
}

; Function Attrs: mustprogress uwtable
define linkonce_odr hidden void @_ZN4lean18reducibility_hintsC2EP11lean_object(ptr noundef nonnull align 8 dereferenceable(8) %0, ptr noundef %1) unnamed_addr #0 comdat align 2 {
  %3 = alloca ptr, align 8
  %4 = alloca ptr, align 8
  store ptr %0, ptr %3, align 8, !tbaa !7
  store ptr %1, ptr %4, align 8, !tbaa !10
  %5 = load ptr, ptr %3, align 8
  %6 = load ptr, ptr %4, align 8, !tbaa !10
  call void @_ZN4lean10object_refC2EP11lean_object(ptr noundef nonnull align 8 dereferenceable(8) %5, ptr noundef %6)
  ret void
}

; Function Attrs: inlinehint mustprogress uwtable
define linkonce_odr hidden noundef ptr @_ZN4lean3boxEm(i64 noundef %0) #4 comdat {
  %2 = alloca i64, align 8
  store i64 %0, ptr %2, align 8, !tbaa !105
  %3 = load i64, ptr %2, align 8, !tbaa !105
  %4 = call noundef ptr @_ZL8lean_boxm(i64 noundef %3)
  ret ptr %4
}

; Function Attrs: mustprogress uwtable
define linkonce_odr hidden void @_ZN4lean8list_refINS_4nameEEC2Ev(ptr noundef nonnull align 8 dereferenceable(8) %0) unnamed_addr #0 comdat align 2 {
  %2 = alloca ptr, align 8
  store ptr %0, ptr %2, align 8, !tbaa !23
  %3 = load ptr, ptr %2, align 8
  %4 = call noundef ptr @_ZN4lean3boxEm(i64 noundef 0)
  call void @_ZN4lean10object_refC2EP11lean_object(ptr noundef nonnull align 8 dereferenceable(8) %3, ptr noundef %4)
  ret void
}

; Function Attrs: mustprogress uwtable
define linkonce_odr hidden void @_ZN4lean4nameC2Ev(ptr noundef nonnull align 8 dereferenceable(8) %0) unnamed_addr #0 comdat align 2 {
  %2 = alloca ptr, align 8
  store ptr %0, ptr %2, align 8, !tbaa !21
  %3 = load ptr, ptr %2, align 8
  %4 = call noundef ptr @_ZN4lean3boxEm(i64 noundef 0)
  call void @_ZN4lean10object_refC2EP11lean_object(ptr noundef nonnull align 8 dereferenceable(8) %3, ptr noundef %4)
  ret void
}

; Function Attrs: inlinehint mustprogress uwtable
define linkonce_odr hidden void @_ZN4lean15mark_persistentEP11lean_object(ptr noundef %0) #4 comdat {
  %2 = alloca ptr, align 8
  store ptr %0, ptr %2, align 8, !tbaa !10
  %3 = load ptr, ptr %2, align 8, !tbaa !10
  call void @lean_mark_persistent(ptr noundef %3)
  ret void
}

; Function Attrs: mustprogress nounwind uwtable
define linkonce_odr hidden noundef ptr @_ZNK4lean10object_ref3rawEv(ptr noundef nonnull align 8 dereferenceable(8) %0) #5 comdat align 2 {
  %2 = alloca ptr, align 8
  store ptr %0, ptr %2, align 8, !tbaa !11
  %3 = load ptr, ptr %2, align 8
  %4 = getelementptr inbounds nuw %"class.lean::object_ref", ptr %3, i32 0, i32 0
  %5 = load ptr, ptr %4, align 8, !tbaa !13
  ret ptr %5
}

; Function Attrs: mustprogress uwtable
define linkonce_odr hidden void @_ZN4lean18reducibility_hints9mk_opaqueEv(ptr dead_on_unwind noalias writable sret(%"class.lean::reducibility_hints") align 8 %0) #0 comdat align 2 {
  %2 = alloca ptr, align 8
  store ptr %0, ptr %2, align 8
  %3 = call noundef ptr @_ZN4lean3boxEm(i64 noundef 0)
  call void @_ZN4lean18reducibility_hintsC2EP11lean_object(ptr noundef nonnull align 8 dereferenceable(8) %0, ptr noundef %3)
  ret void
}

; Function Attrs: mustprogress uwtable
define hidden void @_ZN4lean22initialize_declarationEv() #0 personality ptr @__gxx_personality_v0 {
  %1 = alloca ptr, align 8
  %2 = alloca i32, align 4
  %3 = alloca %"class.lean::name", align 8
  %4 = alloca %"class.lean::list_ref", align 8
  %5 = alloca %"class.lean::expr", align 8
  %6 = alloca i1, align 1
  %7 = call noalias noundef nonnull ptr @_Znwm(i64 noundef 8) #19
  invoke void @_ZN4lean18reducibility_hints9mk_opaqueEv(ptr dead_on_unwind writable sret(%"class.lean::reducibility_hints") align 8 %7)
          to label %8 unwind label %18

8:                                                ; preds = %0
  store ptr %7, ptr @_ZN4leanL8g_opaqueE, align 8, !tbaa !7
  %9 = load ptr, ptr @_ZN4leanL8g_opaqueE, align 8, !tbaa !7
  %10 = call noundef ptr @_ZNK4lean10object_ref3rawEv(ptr noundef nonnull align 8 dereferenceable(8) %9)
  call void @_ZN4lean15mark_persistentEP11lean_object(ptr noundef %10)
  %11 = call noalias noundef nonnull ptr @_Znwm(i64 noundef 8) #19
  store i1 true, ptr %6, align 1
  call void @llvm.lifetime.start.p0(i64 8, ptr %3) #16
  invoke void @_ZN4lean4nameC2Ev(ptr noundef nonnull align 8 dereferenceable(8) %3)
          to label %12 unwind label %22

12:                                               ; preds = %8
  call void @llvm.lifetime.start.p0(i64 8, ptr %4) #16
  invoke void @_ZN4lean8list_refINS_4nameEEC2Ev(ptr noundef nonnull align 8 dereferenceable(8) %4)
          to label %13 unwind label %26

13:                                               ; preds = %12
  call void @llvm.lifetime.start.p0(i64 8, ptr %5) #16
  invoke void @_ZN4lean4exprC1Ev(ptr noundef nonnull align 8 dereferenceable(8) %5)
          to label %14 unwind label %30

14:                                               ; preds = %13
  invoke void @_ZN4lean8mk_axiomERKNS_4nameERKNS_8list_refIS0_EERKNS_4exprEb(ptr dead_on_unwind writable sret(%"class.lean::declaration") align 8 %11, ptr noundef nonnull align 8 dereferenceable(8) %3, ptr noundef nonnull align 8 dereferenceable(8) %4, ptr noundef nonnull align 8 dereferenceable(8) %5, i1 noundef zeroext false)
          to label %15 unwind label %34

15:                                               ; preds = %14
  store i1 false, ptr %6, align 1
  store ptr %11, ptr @_ZN4leanL7g_dummyE, align 8, !tbaa !59
  call void @_ZN4lean10object_refD2Ev(ptr noundef nonnull align 8 dereferenceable(8) %5) #16
  call void @llvm.lifetime.end.p0(i64 8, ptr %5) #16
  call void @_ZN4lean10object_refD2Ev(ptr noundef nonnull align 8 dereferenceable(8) %4) #16
  call void @llvm.lifetime.end.p0(i64 8, ptr %4) #16
  call void @_ZN4lean10object_refD2Ev(ptr noundef nonnull align 8 dereferenceable(8) %3) #16
  call void @llvm.lifetime.end.p0(i64 8, ptr %3) #16
  %16 = load ptr, ptr @_ZN4leanL7g_dummyE, align 8, !tbaa !59
  %17 = call noundef ptr @_ZNK4lean10object_ref3rawEv(ptr noundef nonnull align 8 dereferenceable(8) %16)
  call void @_ZN4lean15mark_persistentEP11lean_object(ptr noundef %17)
  ret void

18:                                               ; preds = %0
  %19 = landingpad { ptr, i32 }
          cleanup
  %20 = extractvalue { ptr, i32 } %19, 0
  store ptr %20, ptr %1, align 8
  %21 = extractvalue { ptr, i32 } %19, 1
  store i32 %21, ptr %2, align 4
  call void @_ZdlPvm(ptr noundef %7, i64 noundef 8) #20
  br label %44

22:                                               ; preds = %8
  %23 = landingpad { ptr, i32 }
          cleanup
  %24 = extractvalue { ptr, i32 } %23, 0
  store ptr %24, ptr %1, align 8
  %25 = extractvalue { ptr, i32 } %23, 1
  store i32 %25, ptr %2, align 4
  br label %40

26:                                               ; preds = %12
  %27 = landingpad { ptr, i32 }
          cleanup
  %28 = extractvalue { ptr, i32 } %27, 0
  store ptr %28, ptr %1, align 8
  %29 = extractvalue { ptr, i32 } %27, 1
  store i32 %29, ptr %2, align 4
  br label %39

30:                                               ; preds = %13
  %31 = landingpad { ptr, i32 }
          cleanup
  %32 = extractvalue { ptr, i32 } %31, 0
  store ptr %32, ptr %1, align 8
  %33 = extractvalue { ptr, i32 } %31, 1
  store i32 %33, ptr %2, align 4
  br label %38

34:                                               ; preds = %14
  %35 = landingpad { ptr, i32 }
          cleanup
  %36 = extractvalue { ptr, i32 } %35, 0
  store ptr %36, ptr %1, align 8
  %37 = extractvalue { ptr, i32 } %35, 1
  store i32 %37, ptr %2, align 4
  call void @_ZN4lean10object_refD2Ev(ptr noundef nonnull align 8 dereferenceable(8) %5) #16
  br label %38

38:                                               ; preds = %34, %30
  call void @llvm.lifetime.end.p0(i64 8, ptr %5) #16
  call void @_ZN4lean10object_refD2Ev(ptr noundef nonnull align 8 dereferenceable(8) %4) #16
  br label %39

39:                                               ; preds = %38, %26
  call void @llvm.lifetime.end.p0(i64 8, ptr %4) #16
  call void @_ZN4lean10object_refD2Ev(ptr noundef nonnull align 8 dereferenceable(8) %3) #16
  br label %40

40:                                               ; preds = %39, %22
  call void @llvm.lifetime.end.p0(i64 8, ptr %3) #16
  %41 = load i1, ptr %6, align 1
  br i1 %41, label %42, label %43

42:                                               ; preds = %40
  call void @_ZdlPvm(ptr noundef %11, i64 noundef 8) #20
  br label %43

43:                                               ; preds = %42, %40
  br label %44

44:                                               ; preds = %43, %18
  %45 = load ptr, ptr %1, align 8
  %46 = load i32, ptr %2, align 4
  %47 = insertvalue { ptr, i32 } poison, ptr %45, 0
  %48 = insertvalue { ptr, i32 } %47, i32 %46, 1
  resume { ptr, i32 } %48
}