; Function Attrs: mustprogress uwtable
define hidden void @_ZN4lean22initialize_declarationEv() local_unnamed_addr #0 personality ptr @__gxx_personality_v0 {
  %1 = alloca %"class.lean::name", align 8
  %2 = alloca %"class.lean::list_ref", align 8
  %3 = alloca %"class.lean::expr", align 8
  %4 = tail call noalias noundef nonnull dereferenceable(8) ptr @_Znwm(i64 noundef 8) #19
  store ptr inttoptr (i64 1 to ptr), ptr %4, align 8, !tbaa !3, !alias.scope !93
  store ptr %4, ptr @_ZN4leanL8g_opaqueE, align 8, !tbaa !91
  tail call void @lean_mark_persistent(ptr noundef nonnull inttoptr (i64 1 to ptr))
  %5 = tail call noalias noundef nonnull dereferenceable(8) ptr @_Znwm(i64 noundef 8) #19
  call void @llvm.lifetime.start.p0(i64 8, ptr nonnull %1) #16
  store ptr inttoptr (i64 1 to ptr), ptr %1, align 8, !tbaa !3
  call void @llvm.lifetime.start.p0(i64 8, ptr nonnull %2) #16
  store ptr inttoptr (i64 1 to ptr), ptr %2, align 8, !tbaa !3
  call void @llvm.lifetime.start.p0(i64 8, ptr nonnull %3) #16
  invoke void @_ZN4lean4exprC1Ev(ptr noundef nonnull align 8 dereferenceable(8) %3)
          to label %6 unwind label %23

6:                                                ; preds = %0
  invoke void @_ZN4lean8mk_axiomERKNS_4nameERKNS_8list_refIS0_EERKNS_4exprEb(ptr dead_on_unwind nonnull writable sret(%"class.lean::declaration") align 8 %5, ptr noundef nonnull align 8 dereferenceable(8) %1, ptr noundef nonnull align 8 dereferenceable(8) %2, ptr noundef nonnull align 8 dereferenceable(8) %3, i1 noundef zeroext false)
          to label %7 unwind label %25

7:                                                ; preds = %6
  store ptr %5, ptr @_ZN4leanL7g_dummyE, align 8, !tbaa !38
  %8 = load ptr, ptr %3, align 8, !tbaa !3
  %9 = ptrtoint ptr %8 to i64
  %10 = and i64 %9, 1
  %.not.i.i = icmp eq i64 %10, 0
  br i1 %.not.i.i, label %11, label %_ZN4lean10object_refD2Ev.exit15

11:                                               ; preds = %7
  %12 = load i32, ptr %8, align 4, !tbaa !8
  %13 = icmp sgt i32 %12, 1
  br i1 %13, label %14, label %16, !prof !11

14:                                               ; preds = %11
  %15 = add nsw i32 %12, -1
  store i32 %15, ptr %8, align 4, !tbaa !8
  br label %_ZN4lean10object_refD2Ev.exit15

16:                                               ; preds = %11
  %.not.i.i.i = icmp eq i32 %12, 0
  br i1 %.not.i.i.i, label %_ZN4lean10object_refD2Ev.exit15, label %17

17:                                               ; preds = %16
  invoke void @lean_dec_ref_cold(ptr noundef nonnull %8)
          to label %_ZN4lean10object_refD2Ev.exit15 unwind label %18

18:                                               ; preds = %17
  %19 = landingpad { ptr, i32 }
          catch ptr null
  %20 = extractvalue { ptr, i32 } %19, 0
  call void @__clang_call_terminate(ptr %20) #18
  unreachable

_ZN4lean10object_refD2Ev.exit15:                  ; preds = %7, %14, %16, %17
  call void @llvm.lifetime.end.p0(i64 8, ptr nonnull %3) #16
  call void @llvm.lifetime.end.p0(i64 8, ptr nonnull %2) #16
  call void @llvm.lifetime.end.p0(i64 8, ptr nonnull %1) #16
  %21 = load ptr, ptr @_ZN4leanL7g_dummyE, align 8, !tbaa !38
  %22 = load ptr, ptr %21, align 8, !tbaa !3
  call void @lean_mark_persistent(ptr noundef %22)
  ret void

23:                                               ; preds = %0
  %24 = landingpad { ptr, i32 }
          cleanup
  br label %27

25:                                               ; preds = %6
  %26 = landingpad { ptr, i32 }
          cleanup
  call void @_ZN4lean10object_refD2Ev(ptr noundef nonnull align 8 dereferenceable(8) %3) #16
  br label %27

27:                                               ; preds = %25, %23
  %.pn = phi { ptr, i32 } [ %26, %25 ], [ %24, %23 ]
  call void @llvm.lifetime.end.p0(i64 8, ptr nonnull %3) #16
  call void @_ZN4lean10object_refD2Ev(ptr noundef nonnull align 8 dereferenceable(8) %2) #16
  call void @llvm.lifetime.end.p0(i64 8, ptr nonnull %2) #16
  call void @_ZN4lean10object_refD2Ev(ptr noundef nonnull align 8 dereferenceable(8) %1) #16
  call void @llvm.lifetime.end.p0(i64 8, ptr nonnull %1) #16
  call void @_ZdlPvm(ptr noundef nonnull %5, i64 noundef 8) #20
  resume { ptr, i32 } %.pn
}